; Function Attrs: mustprogress nounwind uwtable
define internal void @"_ZNSt17_Function_handlerIFvRN4llvm19MachineInstrBuilderEEZNK12_GLOBAL__N_124RISCVInstructionSelector16selectAddrRegImmERNS0_14MachineOperandEE3$_6E9_M_invokeERKSt9_Any_dataS2_"(ptr nocapture noundef nonnull readonly align 8 dereferenceable(16) %0, ptr nocapture noundef nonnull readonly align 8 dereferenceable(16) %1) #0 align 2 {
  %3 = alloca %"class.llvm::MachineOperand", align 8
  %.val = load ptr, ptr %0, align 8
  %4 = getelementptr i8, ptr %.val, i64 4
  %.val2 = load i32, ptr %4, align 4
  %.val3 = load ptr, ptr %1, align 8
  %5 = getelementptr inbounds i8, ptr %1, i64 8
  %.val4 = load ptr, ptr %5, align 8
  call void @llvm.lifetime.start.p0(i64 32, ptr nonnull %3)
  %6 = getelementptr inbounds nuw i8, ptr %3, i64 8
  store ptr null, ptr %6, align 8, !alias.scope !43
  %7 = getelementptr inbounds nuw i8, ptr %3, i64 4
  store i32 %.val2, ptr %7, align 4, !alias.scope !43
  %8 = getelementptr inbounds nuw i8, ptr %3, i64 16
  call void @llvm.memset.p0.i64(ptr noundef nonnull align 8 dereferenceable(16) %8, i8 0, i64 16, i1 false), !alias.scope !43
  store i32 0, ptr %3, align 8, !alias.scope !43
  call void @_ZN4llvm12MachineInstr10addOperandERNS_15MachineFunctionERKNS_14MachineOperandE(ptr noundef nonnull align 8 dereferenceable(70) %.val4, ptr noundef nonnull align 8 dereferenceable(1041) %.val3, ptr noundef nonnull align 8 dereferenceable(32) %3) #24
  call void @llvm.lifetime.end.p0(i64 32, ptr nonnull %3)
  ret void
}